; Function Attrs: nounwind uwtable
define void @Ivy_ManDfs_rec(ptr noundef %0, ptr noundef captures(none) %1, ptr noundef %2) local_unnamed_addr #0 {
  %4 = getelementptr i8, ptr %1, i64 8
  %.val42 = load i32, ptr %4, align 8
  %5 = and i32 %.val42, 16
  %.not43 = icmp eq i32 %5, 0
  br i1 %.not43, label %.lr.ph, label %.loopexit

.lr.ph:                                           ; preds = %3
  %6 = getelementptr inbounds nuw i8, ptr %0, i64 216
  br label %7

7:                                                ; preds = %.lr.ph, %tailrecurse
  %.val45 = phi i32 [ %.val42, %.lr.ph ], [ %.val, %tailrecurse ]
  %8 = phi ptr [ %4, %.lr.ph ], [ %21, %tailrecurse ]
  %.tr3844 = phi ptr [ %1, %.lr.ph ], [ %20, %tailrecurse ]
  %9 = or disjoint i32 %.val45, 16
  store i32 %9, ptr %8, align 8
  %.val29 = load i32, ptr %.tr3844, align 8, !tbaa !3
  %.not34 = icmp eq i32 %.val29, 0
  br i1 %.not34, label %12, label %10

10:                                               ; preds = %7
  %11 = and i32 %.val45, 15
  switch i32 %11, label %23 [
    i32 4, label %12
    i32 1, label %12
  ]

12:                                               ; preds = %10, %10, %7
  %13 = load ptr, ptr %6, align 8, !tbaa !10
  %14 = icmp eq ptr %13, null
  br i1 %14, label %15, label %.loopexit

15:                                               ; preds = %12
  %16 = getelementptr inbounds nuw i8, ptr %.tr3844, i64 72
  %17 = load ptr, ptr %16, align 8, !tbaa !17
  %.not28 = icmp eq ptr %17, null
  br i1 %.not28, label %.loopexit, label %tailrecurse

tailrecurse:                                      ; preds = %15
  %18 = ptrtoint ptr %17 to i64
  %19 = and i64 %18, -2
  %20 = inttoptr i64 %19 to ptr
  %21 = getelementptr i8, ptr %20, i64 8
  %.val = load i32, ptr %21, align 8
  %22 = and i32 %.val, 16
  %.not = icmp eq i32 %22, 0
  br i1 %.not, label %7, label %.loopexit

23:                                               ; preds = %10
  %24 = getelementptr i8, ptr %.tr3844, i64 16
  %.val31 = load ptr, ptr %24, align 8, !tbaa !18
  %25 = ptrtoint ptr %.val31 to i64
  %26 = and i64 %25, -2
  %27 = inttoptr i64 %26 to ptr
  tail call void @Ivy_ManDfs_rec(ptr noundef %0, ptr noundef %27, ptr noundef %2)
  %.val32 = load i32, ptr %8, align 8
  %28 = and i32 %.val32, 15
  %.not37 = icmp eq i32 %28, 7
  br i1 %.not37, label %34, label %29

29:                                               ; preds = %23
  %30 = getelementptr i8, ptr %.tr3844, i64 24
  %.val33 = load ptr, ptr %30, align 8, !tbaa !19
  %31 = ptrtoint ptr %.val33 to i64
  %32 = and i64 %31, -2
  %33 = inttoptr i64 %32 to ptr
  tail call void @Ivy_ManDfs_rec(ptr noundef %0, ptr noundef %33, ptr noundef %2)
  br label %34

34:                                               ; preds = %29, %23
  %35 = load ptr, ptr %6, align 8, !tbaa !10
  %36 = icmp eq ptr %35, null
  br i1 %36, label %37, label %44

37:                                               ; preds = %34
  %38 = getelementptr inbounds nuw i8, ptr %.tr3844, i64 72
  %39 = load ptr, ptr %38, align 8, !tbaa !17
  %.not27 = icmp eq ptr %39, null
  br i1 %.not27, label %44, label %40

40:                                               ; preds = %37
  %41 = ptrtoint ptr %39 to i64
  %42 = and i64 %41, -2
  %43 = inttoptr i64 %42 to ptr
  tail call void @Ivy_ManDfs_rec(ptr noundef nonnull %0, ptr noundef %43, ptr noundef %2)
  br label %44

44:                                               ; preds = %40, %37, %34
  %45 = load i32, ptr %.tr3844, align 8, !tbaa !3
  %46 = getelementptr inbounds nuw i8, ptr %2, i64 4
  %47 = load i32, ptr %46, align 4, !tbaa !20
  %48 = load i32, ptr %2, align 8, !tbaa !22
  %49 = icmp eq i32 %47, %48
  br i1 %49, label %50, label %.Vec_IntGrow.exit10_crit_edge.i

.Vec_IntGrow.exit10_crit_edge.i:                  ; preds = %44
  %.phi.trans.insert.i = getelementptr inbounds nuw i8, ptr %2, i64 8
  %.pre.i = load ptr, ptr %.phi.trans.insert.i, align 8, !tbaa !23
  br label %Vec_IntPush.exit

50:                                               ; preds = %44
  %51 = icmp slt i32 %47, 16
  br i1 %51, label %52, label %60

52:                                               ; preds = %50
  %53 = getelementptr inbounds nuw i8, ptr %2, i64 8
  %54 = load ptr, ptr %53, align 8, !tbaa !23
  %.not9.i.i = icmp eq ptr %54, null
  br i1 %.not9.i.i, label %57, label %55

55:                                               ; preds = %52
  %56 = tail call dereferenceable_or_null(64) ptr @realloc(ptr noundef nonnull %54, i64 noundef 64) #13
  br label %Vec_IntGrow.exit.i

57:                                               ; preds = %52
  %58 = tail call noalias dereferenceable_or_null(64) ptr @malloc(i64 noundef 64) #14
  br label %Vec_IntGrow.exit.i

Vec_IntGrow.exit.i:                               ; preds = %57, %55
  %59 = phi ptr [ %56, %55 ], [ %58, %57 ]
  store ptr %59, ptr %53, align 8, !tbaa !23
  store i32 16, ptr %2, align 8, !tbaa !22
  br label %Vec_IntPush.exit

60:                                               ; preds = %50
  %61 = shl nuw nsw i32 %47, 1
  %62 = getelementptr inbounds nuw i8, ptr %2, i64 8
  %63 = load ptr, ptr %62, align 8, !tbaa !23
  %.not9.i9.i = icmp eq ptr %63, null
  %64 = zext nneg i32 %61 to i64
  %65 = shl nuw nsw i64 %64, 2
  br i1 %.not9.i9.i, label %68, label %66

66:                                               ; preds = %60
  %67 = tail call ptr @realloc(ptr noundef nonnull %63, i64 noundef %65) #13
  br label %70

68:                                               ; preds = %60
  %69 = tail call noalias ptr @malloc(i64 noundef %65) #14
  br label %70

70:                                               ; preds = %68, %66
  %71 = phi ptr [ %67, %66 ], [ %69, %68 ]
  store ptr %71, ptr %62, align 8, !tbaa !23
  store i32 %61, ptr %2, align 8, !tbaa !22
  br label %Vec_IntPush.exit

Vec_IntPush.exit:                                 ; preds = %.Vec_IntGrow.exit10_crit_edge.i, %Vec_IntGrow.exit.i, %70
  %72 = phi ptr [ %.pre.i, %.Vec_IntGrow.exit10_crit_edge.i ], [ %71, %70 ], [ %59, %Vec_IntGrow.exit.i ]
  %73 = load i32, ptr %46, align 4, !tbaa !20
  %74 = add nsw i32 %73, 1
  store i32 %74, ptr %46, align 4, !tbaa !20
  %75 = sext i32 %73 to i64
  %76 = getelementptr inbounds i32, ptr %72, i64 %75
  store i32 %45, ptr %76, align 4, !tbaa !24
  br label %.loopexit

.loopexit:                                        ; preds = %tailrecurse, %15, %12, %3, %Vec_IntPush.exit
  ret void
}